target datalayout = "e-m:e-p270:32:32-p271:32:32-p272:64:64-i64:64-i128:128-f80:128-n8:16:32:64-S128"
target triple = "x86_64-pc-linux-gnu"

@.str.26 = private unnamed_addr constant [3 x i8] c"0x\00", align 1
@.str.27 = private unnamed_addr constant [3 x i8] c"0X\00", align 1

; Function Attrs: nounwind uwtable
define zeroext i16 @cli_bcomp_chk_hex(ptr noundef %0, i16 noundef zeroext %1, i32 noundef %2, i32 noundef %3) #0 {
  %5 = alloca i16, align 2
  %6 = alloca ptr, align 8
  %7 = alloca i16, align 2
  %8 = alloca i32, align 4
  %9 = alloca i32, align 4
  %10 = alloca i16, align 2
  store ptr %0, ptr %6, align 8
  store i16 %1, ptr %7, align 2
  store i32 %2, ptr %8, align 4
  store i32 %3, ptr %9, align 4
  store i16 0, ptr %10, align 2
  %11 = load ptr, ptr %6, align 8
  %12 = icmp ne ptr %11, null
  br i1 %12, label %13, label %16

13:                                               ; preds = %4
  %14 = load i32, ptr %8, align 4
  %15 = icmp ult i32 %14, 3
  br i1 %15, label %16, label %50

16:                                               ; preds = %13, %4
  %17 = load ptr, ptr %6, align 8
  %18 = icmp ne ptr %17, null
  br i1 %18, label %19, label %38

19:                                               ; preds = %16
  %20 = load i32, ptr %8, align 4
  %21 = icmp ult i32 %20, 3
  br i1 %21, label %22, label %38

22:                                               ; preds = %19
  %23 = load i16, ptr %7, align 2
  %24 = zext i16 %23 to i32
  %25 = and i32 %24, 240
  %26 = and i32 %25, 8
  %27 = icmp ne i32 %26, 0
  br i1 %27, label %28, label %37

28:                                               ; preds = %22
  %29 = load i16, ptr %7, align 2
  %30 = zext i16 %29 to i32
  %31 = or i32 %30, 2
  %32 = trunc i32 %31 to i16
  store i16 %32, ptr %7, align 2
  %33 = load i16, ptr %7, align 2
  %34 = zext i16 %33 to i32
  %35 = xor i32 %34, 8
  %36 = trunc i32 %35 to i16
  store i16 %36, ptr %7, align 2
  br label %37

37:                                               ; preds = %28, %22
  br label %38

38:                                               ; preds = %37, %19, %16
  %39 = load i32, ptr %9, align 4
  %40 = icmp ne i32 %39, 0
  br i1 %40, label %41, label %44

41:                                               ; preds = %38
  %42 = load i16, ptr %10, align 2
  %43 = zext i16 %42 to i32
  br label %47

44:                                               ; preds = %38
  %45 = load i16, ptr %7, align 2
  %46 = zext i16 %45 to i32
  br label %47

47:                                               ; preds = %44, %41
  %48 = phi i32 [ %43, %41 ], [ %46, %44 ]
  %49 = trunc i32 %48 to i16
  store i16 %49, ptr %5, align 2
  br label %84

50:                                               ; preds = %13
  %51 = load ptr, ptr %6, align 8
  %52 = call i32 @strncmp(ptr noundef %51, ptr noundef @.str.26, i64 noundef 2) #9
  %53 = icmp ne i32 %52, 0
  br i1 %53, label %54, label %58

54:                                               ; preds = %50
  %55 = load ptr, ptr %6, align 8
  %56 = call i32 @strncmp(ptr noundef %55, ptr noundef @.str.27, i64 noundef 2) #9
  %57 = icmp ne i32 %56, 0
  br i1 %57, label %63, label %58

58:                                               ; preds = %54, %50
  %59 = load i16, ptr %7, align 2
  %60 = zext i16 %59 to i32
  %61 = or i32 %60, 1
  %62 = trunc i32 %61 to i16
  store i16 %62, ptr %7, align 2
  store i16 1, ptr %10, align 2
  br label %68

63:                                               ; preds = %54
  %64 = load i16, ptr %7, align 2
  %65 = zext i16 %64 to i32
  %66 = or i32 %65, 2
  %67 = trunc i32 %66 to i16
  store i16 %67, ptr %7, align 2
  store i16 0, ptr %10, align 2
  br label %68

68:                                               ; preds = %63, %58
  %69 = load i16, ptr %7, align 2
  %70 = zext i16 %69 to i32
  %71 = xor i32 %70, 8
  %72 = trunc i32 %71 to i16
  store i16 %72, ptr %7, align 2
  %73 = load i32, ptr %9, align 4
  %74 = icmp ne i32 %73, 0
  br i1 %74, label %75, label %78

75:                                               ; preds = %68
  %76 = load i16, ptr %10, align 2
  %77 = zext i16 %76 to i32
  br label %81

78:                                               ; preds = %68
  %79 = load i16, ptr %7, align 2
  %80 = zext i16 %79 to i32
  br label %81

81:                                               ; preds = %78, %75
  %82 = phi i32 [ %77, %75 ], [ %80, %78 ]
  %83 = trunc i32 %82 to i16
  store i16 %83, ptr %5, align 2
  br label %84

84:                                               ; preds = %81, %47
  %85 = load i16, ptr %5, align 2
  ret i16 %85
}