; Function Attrs: mustprogress nofree nounwind willreturn memory(argmem: read) uwtable
define zeroext i16 @cli_bcomp_chk_hex(ptr noundef readonly %0, i16 noundef zeroext %1, i32 noundef %2, i32 noundef %3) local_unnamed_addr #9 {
  %5 = icmp eq ptr %0, null
  %6 = icmp ult i32 %2, 3
  %or.cond = or i1 %5, %6
  br i1 %or.cond, label %7, label %9

7:                                                ; preds = %4
  %.not26 = icmp eq i32 %3, 0
  %8 = select i1 %.not26, i16 %1, i16 0
  br label %17

9:                                                ; preds = %4
  %10 = tail call i32 @strncmp(ptr noundef nonnull dereferenceable(1) %0, ptr noundef nonnull dereferenceable(3) @.str.26, i64 noundef 2) #15
  %.not = icmp eq i32 %10, 0
  br i1 %.not, label %13, label %11

11:                                               ; preds = %9
  %12 = tail call i32 @strncmp(ptr noundef nonnull dereferenceable(1) %0, ptr noundef nonnull dereferenceable(3) @.str.27, i64 noundef 2) #15
  %.not24 = icmp eq i32 %12, 0
  %spec.select = select i1 %.not24, i16 1, i16 2
  %spec.select27 = zext i1 %.not24 to i16
  br label %13

13:                                               ; preds = %11, %9
  %.sink = phi i16 [ 1, %9 ], [ %spec.select, %11 ]
  %.0 = phi i16 [ 1, %9 ], [ %spec.select27, %11 ]
  %14 = or i16 %.sink, %1
  %15 = xor i16 %14, 8
  %.not25 = icmp eq i32 %3, 0
  %16 = select i1 %.not25, i16 %15, i16 %.0
  br label %17

17:                                               ; preds = %13, %7
  %.021 = phi i16 [ %8, %7 ], [ %16, %13 ]
  ret i16 %.021
}